target datalayout = "e-m:e-p270:32:32-p271:32:32-p272:64:64-i64:64-i128:128-f80:128-n8:16:32:64-S128"
target triple = "x86_64-pc-linux-gnu"

%struct.nghttp2_map = type { ptr, ptr, i64, i64 }
%struct.nghttp2_map_bucket = type { i32, i32, ptr }

; Function Attrs: nounwind uwtable
define internal i64 @hash(i32 noundef %0, i64 noundef %1) #0 {
  %3 = alloca i32, align 4
  %4 = alloca i64, align 8
  store i32 %0, ptr %3, align 4, !tbaa !21
  store i64 %1, ptr %4, align 8, !tbaa !16
  %5 = load i32, ptr %3, align 4, !tbaa !21
  %6 = mul i32 %5, -1640531527
  %7 = load i64, ptr %4, align 8, !tbaa !16
  %8 = sub i64 32, %7
  %9 = trunc i64 %8 to i32
  %10 = lshr i32 %6, %9
  %11 = zext i32 %10 to i64
  ret i64 %11
}

; Function Attrs: nounwind uwtable
define hidden i32 @nghttp2_map_remove(ptr noundef %0, i32 noundef %1) #0 {
  %3 = alloca i32, align 4
  %4 = alloca ptr, align 8
  %5 = alloca i32, align 4
  %6 = alloca i64, align 8
  %7 = alloca ptr, align 8
  %8 = alloca ptr, align 8
  %9 = alloca i64, align 8
  %10 = alloca i64, align 8
  %11 = alloca i32, align 4
  store ptr %0, ptr %4, align 8, !tbaa !3
  store i32 %1, ptr %5, align 4, !tbaa !21
  call void @llvm.lifetime.start.p0(i64 8, ptr %6) #7
  call void @llvm.lifetime.start.p0(i64 8, ptr %7) #7
  call void @llvm.lifetime.start.p0(i64 8, ptr %8) #7
  call void @llvm.lifetime.start.p0(i64 8, ptr %9) #7
  store i64 0, ptr %9, align 8, !tbaa !16
  call void @llvm.lifetime.start.p0(i64 8, ptr %10) #7
  %12 = load ptr, ptr %4, align 8, !tbaa !3
  %13 = getelementptr inbounds nuw %struct.nghttp2_map, ptr %12, i32 0, i32 2
  %14 = load i64, ptr %13, align 8, !tbaa !15
  %15 = icmp eq i64 %14, 0
  br i1 %15, label %16, label %17

16:                                               ; preds = %2
  store i32 -501, ptr %3, align 4
  store i32 1, ptr %11, align 4
  br label %102

17:                                               ; preds = %2
  %18 = load i32, ptr %5, align 4, !tbaa !21
  %19 = load ptr, ptr %4, align 8, !tbaa !3
  %20 = getelementptr inbounds nuw %struct.nghttp2_map, ptr %19, i32 0, i32 3
  %21 = load i64, ptr %20, align 8, !tbaa !13
  %22 = call i64 @hash(i32 noundef %18, i64 noundef %21)
  store i64 %22, ptr %6, align 8, !tbaa !16
  %23 = load ptr, ptr %4, align 8, !tbaa !3
  %24 = getelementptr inbounds nuw %struct.nghttp2_map, ptr %23, i32 0, i32 3
  %25 = load i64, ptr %24, align 8, !tbaa !13
  %26 = trunc i64 %25 to i32
  %27 = shl i32 1, %26
  %28 = sub i32 %27, 1
  %29 = zext i32 %28 to i64
  store i64 %29, ptr %10, align 8, !tbaa !16
  br label %30

30:                                               ; preds = %95, %17
  %31 = load ptr, ptr %4, align 8, !tbaa !3
  %32 = getelementptr inbounds nuw %struct.nghttp2_map, ptr %31, i32 0, i32 0
  %33 = load ptr, ptr %32, align 8, !tbaa !14
  %34 = load i64, ptr %6, align 8, !tbaa !16
  %35 = getelementptr inbounds nuw %struct.nghttp2_map_bucket, ptr %33, i64 %34
  store ptr %35, ptr %8, align 8, !tbaa !17
  %36 = load ptr, ptr %8, align 8, !tbaa !17
  %37 = getelementptr inbounds nuw %struct.nghttp2_map_bucket, ptr %36, i32 0, i32 2
  %38 = load ptr, ptr %37, align 8, !tbaa !18
  %39 = icmp eq ptr %38, null
  br i1 %39, label %47, label %40

40:                                               ; preds = %30
  %41 = load i64, ptr %9, align 8, !tbaa !16
  %42 = load ptr, ptr %8, align 8, !tbaa !17
  %43 = getelementptr inbounds nuw %struct.nghttp2_map_bucket, ptr %42, i32 0, i32 0
  %44 = load i32, ptr %43, align 8, !tbaa !27
  %45 = zext i32 %44 to i64
  %46 = icmp ugt i64 %41, %45
  br i1 %46, label %47, label %48

47:                                               ; preds = %40, %30
  store i32 -501, ptr %3, align 4
  store i32 1, ptr %11, align 4
  br label %102

48:                                               ; preds = %40
  %49 = load ptr, ptr %8, align 8, !tbaa !17
  %50 = getelementptr inbounds nuw %struct.nghttp2_map_bucket, ptr %49, i32 0, i32 1
  %51 = load i32, ptr %50, align 4, !tbaa !26
  %52 = load i32, ptr %5, align 4, !tbaa !21
  %53 = icmp eq i32 %51, %52
  br i1 %53, label %54, label %95

54:                                               ; preds = %48
  %55 = load ptr, ptr %8, align 8, !tbaa !17
  store ptr %55, ptr %7, align 8, !tbaa !17
  %56 = load i64, ptr %6, align 8, !tbaa !16
  %57 = add i64 %56, 1
  %58 = load i64, ptr %10, align 8, !tbaa !16
  %59 = and i64 %57, %58
  store i64 %59, ptr %6, align 8, !tbaa !16
  br label %60

60:                                               ; preds = %78, %54
  %61 = load ptr, ptr %4, align 8, !tbaa !3
  %62 = getelementptr inbounds nuw %struct.nghttp2_map, ptr %61, i32 0, i32 0
  %63 = load ptr, ptr %62, align 8, !tbaa !14
  %64 = load i64, ptr %6, align 8, !tbaa !16
  %65 = getelementptr inbounds nuw %struct.nghttp2_map_bucket, ptr %63, i64 %64
  store ptr %65, ptr %8, align 8, !tbaa !17
  %66 = load ptr, ptr %8, align 8, !tbaa !17
  %67 = getelementptr inbounds nuw %struct.nghttp2_map_bucket, ptr %66, i32 0, i32 2
  %68 = load ptr, ptr %67, align 8, !tbaa !18
  %69 = icmp eq ptr %68, null
  br i1 %69, label %75, label %70

70:                                               ; preds = %60
  %71 = load ptr, ptr %8, align 8, !tbaa !17
  %72 = getelementptr inbounds nuw %struct.nghttp2_map_bucket, ptr %71, i32 0, i32 0
  %73 = load i32, ptr %72, align 8, !tbaa !27
  %74 = icmp eq i32 %73, 0
  br i1 %74, label %75, label %78

75:                                               ; preds = %70, %60
  %76 = load ptr, ptr %7, align 8, !tbaa !17
  %77 = getelementptr inbounds nuw %struct.nghttp2_map_bucket, ptr %76, i32 0, i32 2
  store ptr null, ptr %77, align 8, !tbaa !18
  br label %90

78:                                               ; preds = %70
  %79 = load ptr, ptr %8, align 8, !tbaa !17
  %80 = getelementptr inbounds nuw %struct.nghttp2_map_bucket, ptr %79, i32 0, i32 0
  %81 = load i32, ptr %80, align 8, !tbaa !27
  %82 = add i32 %81, -1
  store i32 %82, ptr %80, align 8, !tbaa !27
  %83 = load ptr, ptr %7, align 8, !tbaa !17
  %84 = load ptr, ptr %8, align 8, !tbaa !17
  call void @llvm.memcpy.p0.p0.i64(ptr align 8 %83, ptr align 8 %84, i64 16, i1 false), !tbaa.struct !30
  %85 = load ptr, ptr %8, align 8, !tbaa !17
  store ptr %85, ptr %7, align 8, !tbaa !17
  %86 = load i64, ptr %6, align 8, !tbaa !16
  %87 = add i64 %86, 1
  %88 = load i64, ptr %10, align 8, !tbaa !16
  %89 = and i64 %87, %88
  store i64 %89, ptr %6, align 8, !tbaa !16
  br label %60

90:                                               ; preds = %75
  %91 = load ptr, ptr %4, align 8, !tbaa !3
  %92 = getelementptr inbounds nuw %struct.nghttp2_map, ptr %91, i32 0, i32 2
  %93 = load i64, ptr %92, align 8, !tbaa !15
  %94 = add i64 %93, -1
  store i64 %94, ptr %92, align 8, !tbaa !15
  store i32 0, ptr %3, align 4
  store i32 1, ptr %11, align 4
  br label %102

95:                                               ; preds = %48
  %96 = load i64, ptr %9, align 8, !tbaa !16
  %97 = add i64 %96, 1
  store i64 %97, ptr %9, align 8, !tbaa !16
  %98 = load i64, ptr %6, align 8, !tbaa !16
  %99 = add i64 %98, 1
  %100 = load i64, ptr %10, align 8, !tbaa !16
  %101 = and i64 %99, %100
  store i64 %101, ptr %6, align 8, !tbaa !16
  br label %30

102:                                              ; preds = %90, %47, %16
  call void @llvm.lifetime.end.p0(i64 8, ptr %10) #7
  call void @llvm.lifetime.end.p0(i64 8, ptr %9) #7
  call void @llvm.lifetime.end.p0(i64 8, ptr %8) #7
  call void @llvm.lifetime.end.p0(i64 8, ptr %7) #7
  call void @llvm.lifetime.end.p0(i64 8, ptr %6) #7
  %103 = load i32, ptr %3, align 4
  ret i32 %103
}