; Function Attrs: nofree norecurse nosync nounwind memory(readwrite, inaccessiblemem: none) uwtable
define hidden range(i32 -501, 1) i32 @nghttp2_map_remove(ptr noundef captures(none) %0, i32 noundef %1) local_unnamed_addr #7 {
  %3 = getelementptr inbounds nuw i8, ptr %0, i64 16
  %4 = load i64, ptr %3, align 8, !tbaa !11
  %5 = icmp eq i64 %4, 0
  br i1 %5, label %.loopexit, label %6

6:                                                ; preds = %2
  %7 = getelementptr inbounds nuw i8, ptr %0, i64 24
  %8 = load i64, ptr %7, align 8, !tbaa !12
  %9 = mul i32 %1, -1640531527
  %10 = trunc i64 %8 to i32
  %11 = sub i32 32, %10
  %12 = lshr i32 %9, %11
  %13 = zext i32 %12 to i64
  %notmask = shl nsw i32 -1, %10
  %14 = xor i32 %notmask, -1
  %15 = zext nneg i32 %14 to i64
  %16 = load ptr, ptr %0, align 8, !tbaa !10
  %17 = getelementptr inbounds nuw %struct.nghttp2_map_bucket, ptr %16, i64 %13
  %18 = getelementptr inbounds nuw i8, ptr %17, i64 8
  %19 = load ptr, ptr %18, align 8, !tbaa !13
  %20 = icmp eq ptr %19, null
  br i1 %20, label %.loopexit, label %.lr.ph

.lr.ph:                                           ; preds = %6, %46
  %21 = phi ptr [ %50, %46 ], [ %17, %6 ]
  %.02936 = phi i64 [ %47, %46 ], [ 0, %6 ]
  %.03135 = phi i64 [ %49, %46 ], [ %13, %6 ]
  %22 = load i32, ptr %21, align 8, !tbaa !21
  %23 = zext i32 %22 to i64
  %24 = icmp samesign ugt i64 %.02936, %23
  br i1 %24, label %.loopexit, label %25

25:                                               ; preds = %.lr.ph
  %26 = getelementptr inbounds nuw i8, ptr %21, i64 4
  %27 = load i32, ptr %26, align 4, !tbaa !20
  %28 = icmp eq i32 %27, %1
  br i1 %28, label %.preheader, label %46

.preheader:                                       ; preds = %25
  %.pn38 = add nuw nsw i64 %.03135, 1
  %.139 = and i64 %.pn38, %15
  %29 = getelementptr inbounds nuw %struct.nghttp2_map_bucket, ptr %16, i64 %.139
  %30 = getelementptr inbounds nuw i8, ptr %29, i64 8
  %31 = load ptr, ptr %30, align 8, !tbaa !13
  %32 = icmp eq ptr %31, null
  br i1 %32, label %._crit_edge, label %.lr.ph42

.lr.ph42:                                         ; preds = %.preheader, %39
  %33 = phi ptr [ %42, %39 ], [ %29, %.preheader ]
  %.141 = phi i64 [ %.1, %39 ], [ %.139, %.preheader ]
  %.03040 = phi ptr [ %33, %39 ], [ %21, %.preheader ]
  %34 = load i32, ptr %33, align 8, !tbaa !21
  %35 = icmp eq i32 %34, 0
  br i1 %35, label %._crit_edge.loopexit, label %39

._crit_edge.loopexit:                             ; preds = %.lr.ph42, %39
  %.030.lcssa.ph = phi ptr [ %33, %39 ], [ %.03040, %.lr.ph42 ]
  %.pre = load i64, ptr %3, align 8, !tbaa !11
  br label %._crit_edge

._crit_edge:                                      ; preds = %._crit_edge.loopexit, %.preheader
  %36 = phi i64 [ %4, %.preheader ], [ %.pre, %._crit_edge.loopexit ]
  %.030.lcssa = phi ptr [ %21, %.preheader ], [ %.030.lcssa.ph, %._crit_edge.loopexit ]
  %37 = getelementptr inbounds nuw i8, ptr %.030.lcssa, i64 8
  store ptr null, ptr %37, align 8, !tbaa !13
  %38 = add i64 %36, -1
  store i64 %38, ptr %3, align 8, !tbaa !11
  br label %.loopexit

39:                                               ; preds = %.lr.ph42
  %40 = add i32 %34, -1
  store i32 %40, ptr %33, align 8, !tbaa !21
  tail call void @llvm.memcpy.p0.p0.i64(ptr noundef nonnull align 8 dereferenceable(16) %.03040, ptr noundef nonnull align 8 dereferenceable(16) %33, i64 16, i1 false), !tbaa.struct !26
  %.pn = add nuw nsw i64 %.141, 1
  %.1 = and i64 %.pn, %15
  %41 = load ptr, ptr %0, align 8, !tbaa !10
  %42 = getelementptr inbounds nuw %struct.nghttp2_map_bucket, ptr %41, i64 %.1
  %43 = getelementptr inbounds nuw i8, ptr %42, i64 8
  %44 = load ptr, ptr %43, align 8, !tbaa !13
  %45 = icmp eq ptr %44, null
  br i1 %45, label %._crit_edge.loopexit, label %.lr.ph42

46:                                               ; preds = %25
  %47 = add nuw nsw i64 %.02936, 1
  %48 = add nuw nsw i64 %.03135, 1
  %49 = and i64 %48, %15
  %50 = getelementptr inbounds nuw %struct.nghttp2_map_bucket, ptr %16, i64 %49
  %51 = getelementptr inbounds nuw i8, ptr %50, i64 8
  %52 = load ptr, ptr %51, align 8, !tbaa !13
  %53 = icmp eq ptr %52, null
  br i1 %53, label %.loopexit, label %.lr.ph

.loopexit:                                        ; preds = %.lr.ph, %46, %6, %2, %._crit_edge
  %.0 = phi i32 [ 0, %._crit_edge ], [ -501, %2 ], [ -501, %6 ], [ -501, %46 ], [ -501, %.lr.ph ]
  ret i32 %.0
}